Certificate:
    Data:
        Version: 3 (0x2)
        Serial Number: 4096 (0x1000)
        Signature Algorithm: sha256WithRSAEncryption
        Issuer: C=US, ST=NY, L=SYR, O=SYR, OU=SYR, CN=seedlabca.com
        Validity
            Not Before: Aug 29 12:27:32 2022 GMT
            Not After : Aug 26 12:27:32 2032 GMT
        Subject: C=US, ST=NY, L=SYR, O=SYR, OU=SYR, CN=vpnlabserver.com
        Subject Public Key Info:
            Public Key Algorithm: rsaEncryption
                RSA Public-Key: (2048 bit)
                Modulus:
                    00:ec:4d:f6:43:a9:37:86:a4:ac:cd:9b:2f:9a:85:
                    ae:a4:8e:be:70:32:c5:8c:ae:66:bb:85:52:4a:90:
                    ed:b9:02:17:77:d9:c4:11:0c:e5:66:96:50:3d:d7:
                    93:85:c4:fc:2e:ef:56:63:5a:c0:7d:c7:be:19:99:
                    12:35:8d:fb:0b:67:9f:b7:e2:77:27:57:8d:88:e2:
                    4a:51:e1:fa:e5:33:10:75:47:f0:ab:9e:bd:f0:66:
                    31:4b:f8:a9:7b:32:94:15:e2:5e:70:07:ef:90:05:
                    7b:be:6a:82:99:7b:3f:41:be:aa:25:c8:52:b6:4d:
                    38:42:29:55:c5:13:0a:dc:4f:40:e3:2e:c1:0e:7e:
                    2a:69:a5:0e:e6:cc:39:9e:7f:31:36:6a:fb:fd:e1:
                    3a:05:03:07:6d:4c:ac:d5:38:2c:a5:c1:b6:b1:e0:
                    21:25:a9:94:71:c3:62:a1:e8:1e:44:6f:c4:8c:27:
                    a1:fb:13:7e:4a:1c:5f:98:15:fe:f0:61:3d:8a:e4:
                    03:27:df:a3:d9:b3:5f:8b:5c:b7:fa:21:12:c8:b3:
                    7f:98:fb:9a:4c:8a:b2:8b:09:60:71:1e:27:1a:ca:
                    66:e6:de:ed:70:bf:d3:8d:2a:15:1f:78:48:8d:f4:
                    eb:cd:5d:05:b1:7a:8d:e1:ce:ef:3d:9e:1d:9f:4b:
                    ac:63
                Exponent: 65537 (0x10001)
        X509v3 extensions:
            X509v3 Basic Constraints: 
                CA:FALSE
            Netscape Comment: 
                OpenSSL Generated Certificate
            X509v3 Subject Key Identifier: 
                C2:8B:1F:E3:D4:71:9F:F1:FC:3D:24:7D:50:3D:C5:80:B0:18:97:63
            X509v3 Authority Key Identifier: 
                keyid:14:F3:1C:70:F5:2D:F0:DE:EF:12:B9:96:C3:38:1A:95:E3:07:55:78

    Signature Algorithm: sha256WithRSAEncryption
         7e:db:2d:16:5b:ba:db:7b:b4:2b:65:06:22:9d:cf:7d:09:97:
         c6:01:66:95:1e:ef:23:2f:11:91:b2:37:2e:77:bc:d5:4d:4a:
         f3:53:52:33:ec:ab:19:cb:02:75:dd:cd:8d:c5:6b:c4:4f:4f:
         82:c1:c7:77:64:d6:54:6c:aa:3d:45:ec:43:85:2f:e8:f6:5e:
         8c:e6:99:26:ca:ec:16:5e:1f:5e:55:44:08:8c:d4:40:30:38:
         f0:f5:5f:bf:bc:7d:ca:0b:1a:fd:13:5d:72:ec:9c:e8:a0:57:
         bd:62:a0:8e:6e:d2:c7:46:1b:24:6a:c1:ed:f6:26:fa:cb:34:
         89:18:ab:91:5c:35:8b:ff:b9:86:a3:ae:26:b8:30:d0:32:a9:
         b0:12:22:25:6b:03:39:4b:07:3a:c0:39:2b:c1:3c:2b:66:22:
         49:ae:47:32:f7:ed:d2:61:94:ce:5b:1d:da:41:a9:75:c1:dc:
         a0:e0:be:08:c0:2a:da:22:0a:a9:38:6a:69:c0:97:4e:9a:0e:
         ee:c6:21:dd:62:ee:bd:8f:2a:e6:4a:a9:63:dc:fc:8f:7b:c2:
         55:a6:82:49:5e:07:94:ce:a9:f0:a6:09:22:54:ce:71:53:70:
         de:e7:0d:63:1c:01:5d:62:2e:c4:3f:27:20:ec:39:58:07:d4:
         a8:3e:88:b3
-----BEGIN CERTIFICATE-----
MIIDsjCCApqgAwIBAgICEAAwDQYJKoZIhvcNAQELBQAwXDELMAkGA1UEBhMCVVMx
CzAJBgNVBAgMAk5ZMQwwCgYDVQQHDANTWVIxDDAKBgNVBAoMA1NZUjEMMAoGA1UE
CwwDU1lSMRYwFAYDVQQDDA1zZWVkbGFiY2EuY29tMB4XDTIyMDgyOTEyMjczMloX
DTMyMDgyNjEyMjczMlowXzELMAkGA1UEBhMCVVMxCzAJBgNVBAgMAk5ZMQwwCgYD
VQQHDANTWVIxDDAKBgNVBAoMA1NZUjEMMAoGA1UECwwDU1lSMRkwFwYDVQQDDBB2
cG5sYWJzZXJ2ZXIuY29tMIIBIjANBgkqhkiG9w0BAQEFAAOCAQ8AMIIBCgKCAQEA
7E32Q6k3hqSszZsvmoWupI6+cDLFjK5mu4VSSpDtuQIXd9nEEQzlZpZQPdeThcT8
Lu9WY1rAfce+GZkSNY37C2eft+J3J1eNiOJKUeH65TMQdUfwq5698GYxS/ipezKU
FeJecAfvkAV7vmqCmXs/Qb6qJchStk04QilVxRMK3E9A4y7BDn4qaaUO5sw5nn8x
Nmr7/eE6BQMHbUys1TgspcG2seAhJamUccNioegeRG/EjCeh+xN+ShxfmBX+8GE9
iuQDJ9+j2bNfi1y3+iESyLN/mPuaTIqyiwlgcR4nGspm5t7tcL/TjSoVH3hIjfTr
zV0FsXqN4c7vPZ4dn0usYwIDAQABo3sweTAJBgNVHRMEAjAAMCwGCWCGSAGG+EIB
DQQfFh1PcGVuU1NMIEdlbmVyYXRlZCBDZXJ0aWZpY2F0ZTAdBgNVHQ4EFgQUwosf
49Rxn/H8PSR9UD3FgLAYl2MwHwYDVR0jBBgwFoAUFPMccPUt8N7vErmWwzgaleMH
VXgwDQYJKoZIhvcNAQELBQADggEBAH7bLRZbutt7tCtlBiKdz30Jl8YBZpUe7yMv
EZGyNy53vNVNSvNTUjPsqxnLAnXdzY3Fa8RPT4LBx3dk1lRsqj1F7EOFL+j2Xozm
mSbK7BZeH15VRAiM1EAwOPD1X7+8fcoLGv0TXXLsnOigV71ioI5u0sdGGyRqwe32
JvrLNIkYq5FcNYv/uYajria4MNAyqbASIiVrAzlLBzrAOSvBPCtmIkmuRzL37dJh
lM5bHdpBqXXB3KDgvgjAKtoiCqk4amnAl06aDu7GId1i7r2PKuZKqWPc/I97wlWm
gkleB5TOqfCmCSJUznFTcN7nDWMcAV1iLsQ/JyDsOVgH1Kg+iLM=
-----END CERTIFICATE-----
