Certificate:
    Data:
        Version: 3 (0x2)
        Serial Number: 4099 (0x1003)
        Signature Algorithm: sha256WithRSAEncryption
        Issuer: C=US, ST=NY, L=SYR, O=SYR, OU=SYR, CN=seedlabca.com
        Validity
            Not Before: Aug 29 14:22:54 2022 GMT
            Not After : Aug 26 14:22:54 2032 GMT
        Subject: C=CN, O=test , CN=www.test.com
        Subject Public Key Info:
            Public Key Algorithm: rsaEncryption
                RSA Public-Key: (2048 bit)
                Modulus:
                    00:ad:18:a5:3f:0c:92:d6:80:cc:6d:44:63:04:19:
                    9c:89:15:13:8e:78:48:06:5d:72:a3:eb:71:a7:cc:
                    da:6f:35:0b:6b:33:fb:9f:4e:a7:6e:84:df:70:38:
                    1f:db:3d:08:ec:38:5e:48:d9:d4:9f:6f:32:c4:7a:
                    28:fb:06:ce:09:da:94:79:41:cf:26:9f:c3:7e:1e:
                    6c:95:d7:3f:89:15:e9:c5:03:60:4b:ae:6c:a8:ef:
                    b0:b2:b2:7e:b6:f2:42:37:72:3f:76:50:f0:af:ba:
                    ab:a7:07:93:f1:5f:63:bd:a1:cb:9b:bf:d3:fc:d2:
                    d5:64:6b:84:5f:4d:88:0c:58:ab:44:60:a0:9a:16:
                    75:1b:b8:64:33:93:72:cf:78:4c:6e:3a:d3:64:c9:
                    b8:6d:03:2a:cf:ca:62:57:a7:02:15:5a:2d:30:50:
                    1c:4f:b5:4a:06:56:0b:7c:97:d4:bc:16:98:20:58:
                    14:4c:93:bd:85:5e:a9:92:a5:4e:1f:f1:f8:b9:e5:
                    c5:3d:0b:aa:87:a8:52:e8:51:76:5c:3f:1c:28:2b:
                    c5:3a:a5:af:98:06:e4:9e:87:94:73:93:4d:fd:e1:
                    73:e3:8a:86:12:5b:03:c5:e1:74:cd:bf:87:02:fd:
                    1c:a7:56:66:70:47:16:32:8b:a2:a5:fa:c8:d8:89:
                    60:fd
                Exponent: 65537 (0x10001)
        X509v3 extensions:
            X509v3 Basic Constraints: 
                CA:FALSE
            Netscape Comment: 
                OpenSSL Generated Certificate
            X509v3 Subject Key Identifier: 
                F5:FC:66:DD:C8:BC:02:36:05:D8:26:26:6C:36:CD:1C:A6:A4:1F:E7
            X509v3 Authority Key Identifier: 
                keyid:14:F3:1C:70:F5:2D:F0:DE:EF:12:B9:96:C3:38:1A:95:E3:07:55:78

    Signature Algorithm: sha256WithRSAEncryption
         25:c6:11:b4:61:9b:54:22:dc:29:54:2d:be:07:d7:3c:a7:40:
         b0:fa:9e:cb:72:85:82:50:71:72:8f:d3:ba:21:d8:18:92:71:
         f3:b6:cf:cf:49:6d:ab:ab:d3:27:ec:c3:82:ca:22:b0:c2:f3:
         6c:4a:09:c9:9b:1b:6d:13:11:e7:16:62:1f:78:38:2c:c2:ed:
         51:16:47:5a:89:6f:a9:3c:d0:09:b5:ce:d5:a5:75:7e:ef:4b:
         19:23:17:9f:93:a2:76:6c:51:53:9d:79:25:3e:b1:3d:7d:67:
         91:d4:e0:54:4d:46:46:aa:ff:a6:b3:c6:80:0b:f7:1f:10:4f:
         4b:6d:6f:53:5b:1f:c1:62:74:24:b4:b9:98:e9:b1:46:4e:2a:
         74:51:2d:38:47:a5:dd:9b:07:4b:e2:2a:f7:57:00:c2:c7:16:
         8d:d7:2a:13:cf:b5:e0:38:d8:be:ad:af:7d:52:15:d6:1a:35:
         23:45:6c:79:60:b8:98:a3:bc:a1:ad:4a:5c:48:a3:a9:ec:5c:
         17:a5:83:24:91:16:5b:c5:60:5b:6a:a3:26:e1:bd:6a:bc:3a:
         7d:7a:30:00:9e:2b:d2:23:14:b3:9a:fb:fa:6e:fe:7a:90:ff:
         c1:bb:06:c6:2e:77:b4:c7:37:18:04:09:d4:11:8a:c3:c2:fb:
         68:68:49:bc
-----BEGIN CERTIFICATE-----
MIIDhzCCAm+gAwIBAgICEAMwDQYJKoZIhvcNAQELBQAwXDELMAkGA1UEBhMCVVMx
CzAJBgNVBAgMAk5ZMQwwCgYDVQQHDANTWVIxDDAKBgNVBAoMA1NZUjEMMAoGA1UE
CwwDU1lSMRYwFAYDVQQDDA1zZWVkbGFiY2EuY29tMB4XDTIyMDgyOTE0MjI1NFoX
DTMyMDgyNjE0MjI1NFowNDELMAkGA1UEBhMCQ04xDjAMBgNVBAoMBXRlc3QgMRUw
EwYDVQQDDAx3d3cudGVzdC5jb20wggEiMA0GCSqGSIb3DQEBAQUAA4IBDwAwggEK
AoIBAQCtGKU/DJLWgMxtRGMEGZyJFROOeEgGXXKj63GnzNpvNQtrM/ufTqduhN9w
OB/bPQjsOF5I2dSfbzLEeij7Bs4J2pR5Qc8mn8N+HmyV1z+JFenFA2BLrmyo77Cy
sn628kI3cj92UPCvuqunB5PxX2O9ocubv9P80tVka4RfTYgMWKtEYKCaFnUbuGQz
k3LPeExuOtNkybhtAyrPymJXpwIVWi0wUBxPtUoGVgt8l9S8FpggWBRMk72FXqmS
pU4f8fi55cU9C6qHqFLoUXZcPxwoK8U6pa+YBuSeh5Rzk0394XPjioYSWwPF4XTN
v4cC/RynVmZwRxYyi6Kl+sjYiWD9AgMBAAGjezB5MAkGA1UdEwQCMAAwLAYJYIZI
AYb4QgENBB8WHU9wZW5TU0wgR2VuZXJhdGVkIENlcnRpZmljYXRlMB0GA1UdDgQW
BBT1/GbdyLwCNgXYJiZsNs0cpqQf5zAfBgNVHSMEGDAWgBQU8xxw9S3w3u8SuZbD
OBqV4wdVeDANBgkqhkiG9w0BAQsFAAOCAQEAJcYRtGGbVCLcKVQtvgfXPKdAsPqe
y3KFglBxco/TuiHYGJJx87bPz0ltq6vTJ+zDgsoisMLzbEoJyZsbbRMR5xZiH3g4
LMLtURZHWolvqTzQCbXO1aV1fu9LGSMXn5OidmxRU515JT6xPX1nkdTgVE1GRqr/
prPGgAv3HxBPS21vU1sfwWJ0JLS5mOmxRk4qdFEtOEel3ZsHS+Iq91cAwscWjdcq
E8+14DjYvq2vfVIV1ho1I0VseWC4mKO8oa1KXEijqexcF6WDJJEWW8VgW2qjJuG9
arw6fXowAJ4r0iMUs5r7+m7+epD/wbsGxi53tMc3GAQJ1BGKw8L7aGhJvA==
-----END CERTIFICATE-----
