Certificate:
    Data:
        Version: 3 (0x2)
        Serial Number: 4098 (0x1002)
        Signature Algorithm: sha256WithRSAEncryption
        Issuer: C=US, ST=NY, L=SYR, O=SYR, OU=SYR, CN=seedlabca.com
        Validity
            Not Before: Aug 29 06:19:11 2022 GMT
            Not After : Aug 26 06:19:11 2032 GMT
        Subject: C=US, ST=NY, L=SYR, O=SYR, OU=SYR, CN=vpnlabserver.com
        Subject Public Key Info:
            Public Key Algorithm: rsaEncryption
                RSA Public-Key: (2048 bit)
                Modulus:
                    00:ec:4d:f6:43:a9:37:86:a4:ac:cd:9b:2f:9a:85:
                    ae:a4:8e:be:70:32:c5:8c:ae:66:bb:85:52:4a:90:
                    ed:b9:02:17:77:d9:c4:11:0c:e5:66:96:50:3d:d7:
                    93:85:c4:fc:2e:ef:56:63:5a:c0:7d:c7:be:19:99:
                    12:35:8d:fb:0b:67:9f:b7:e2:77:27:57:8d:88:e2:
                    4a:51:e1:fa:e5:33:10:75:47:f0:ab:9e:bd:f0:66:
                    31:4b:f8:a9:7b:32:94:15:e2:5e:70:07:ef:90:05:
                    7b:be:6a:82:99:7b:3f:41:be:aa:25:c8:52:b6:4d:
                    38:42:29:55:c5:13:0a:dc:4f:40:e3:2e:c1:0e:7e:
                    2a:69:a5:0e:e6:cc:39:9e:7f:31:36:6a:fb:fd:e1:
                    3a:05:03:07:6d:4c:ac:d5:38:2c:a5:c1:b6:b1:e0:
                    21:25:a9:94:71:c3:62:a1:e8:1e:44:6f:c4:8c:27:
                    a1:fb:13:7e:4a:1c:5f:98:15:fe:f0:61:3d:8a:e4:
                    03:27:df:a3:d9:b3:5f:8b:5c:b7:fa:21:12:c8:b3:
                    7f:98:fb:9a:4c:8a:b2:8b:09:60:71:1e:27:1a:ca:
                    66:e6:de:ed:70:bf:d3:8d:2a:15:1f:78:48:8d:f4:
                    eb:cd:5d:05:b1:7a:8d:e1:ce:ef:3d:9e:1d:9f:4b:
                    ac:63
                Exponent: 65537 (0x10001)
        X509v3 extensions:
            X509v3 Basic Constraints: 
                CA:FALSE
            Netscape Comment: 
                OpenSSL Generated Certificate
            X509v3 Subject Key Identifier: 
                C2:8B:1F:E3:D4:71:9F:F1:FC:3D:24:7D:50:3D:C5:80:B0:18:97:63
            X509v3 Authority Key Identifier: 
                keyid:14:F3:1C:70:F5:2D:F0:DE:EF:12:B9:96:C3:38:1A:95:E3:07:55:78

    Signature Algorithm: sha256WithRSAEncryption
         5b:53:c0:9f:4a:d0:57:95:ee:a5:02:1f:78:77:b2:b0:e3:89:
         42:af:e2:c6:02:3e:9f:3c:66:09:2c:87:7c:19:93:be:32:f3:
         a6:06:38:6f:07:58:4f:a6:2a:0d:bd:ab:d5:96:7d:7d:e2:3a:
         3b:38:e6:07:ec:c0:31:76:61:28:9a:88:46:3b:11:dc:8c:c2:
         e7:f6:55:fc:05:99:8e:88:d6:8e:56:6a:87:5b:58:b8:c3:fc:
         97:1a:8c:9f:0b:0e:4d:06:6a:6b:27:ee:bb:dd:05:20:8d:76:
         f4:2c:b1:7c:d1:26:8d:ee:1e:b8:8d:a8:fa:4f:39:c9:f5:7f:
         c7:b5:c7:b4:86:03:35:bc:50:bc:06:64:24:32:d7:33:58:4c:
         5f:b6:cf:b9:35:1a:a0:d9:f6:65:38:8b:74:64:05:7f:d8:1e:
         39:ab:da:69:04:29:3f:9c:14:9f:60:ba:4b:3f:f3:93:83:e0:
         6a:71:31:75:95:da:34:f7:9c:f6:c5:ff:56:3d:b7:53:73:be:
         36:68:ae:95:a4:0f:37:7b:45:11:4d:1a:e5:72:7a:ef:d6:2b:
         a7:79:b8:6b:71:15:f5:70:65:d8:40:f7:2e:d5:09:f3:3c:84:
         8f:cd:c1:25:5a:bb:e7:cd:d8:4c:ad:8d:59:6f:5b:a0:ce:16:
         96:db:4e:82
-----BEGIN CERTIFICATE-----
MIIDsjCCApqgAwIBAgICEAIwDQYJKoZIhvcNAQELBQAwXDELMAkGA1UEBhMCVVMx
CzAJBgNVBAgMAk5ZMQwwCgYDVQQHDANTWVIxDDAKBgNVBAoMA1NZUjEMMAoGA1UE
CwwDU1lSMRYwFAYDVQQDDA1zZWVkbGFiY2EuY29tMB4XDTIyMDgyOTA2MTkxMVoX
DTMyMDgyNjA2MTkxMVowXzELMAkGA1UEBhMCVVMxCzAJBgNVBAgMAk5ZMQwwCgYD
VQQHDANTWVIxDDAKBgNVBAoMA1NZUjEMMAoGA1UECwwDU1lSMRkwFwYDVQQDDBB2
cG5sYWJzZXJ2ZXIuY29tMIIBIjANBgkqhkiG9w0BAQEFAAOCAQ8AMIIBCgKCAQEA
7E32Q6k3hqSszZsvmoWupI6+cDLFjK5mu4VSSpDtuQIXd9nEEQzlZpZQPdeThcT8
Lu9WY1rAfce+GZkSNY37C2eft+J3J1eNiOJKUeH65TMQdUfwq5698GYxS/ipezKU
FeJecAfvkAV7vmqCmXs/Qb6qJchStk04QilVxRMK3E9A4y7BDn4qaaUO5sw5nn8x
Nmr7/eE6BQMHbUys1TgspcG2seAhJamUccNioegeRG/EjCeh+xN+ShxfmBX+8GE9
iuQDJ9+j2bNfi1y3+iESyLN/mPuaTIqyiwlgcR4nGspm5t7tcL/TjSoVH3hIjfTr
zV0FsXqN4c7vPZ4dn0usYwIDAQABo3sweTAJBgNVHRMEAjAAMCwGCWCGSAGG+EIB
DQQfFh1PcGVuU1NMIEdlbmVyYXRlZCBDZXJ0aWZpY2F0ZTAdBgNVHQ4EFgQUwosf
49Rxn/H8PSR9UD3FgLAYl2MwHwYDVR0jBBgwFoAUFPMccPUt8N7vErmWwzgaleMH
VXgwDQYJKoZIhvcNAQELBQADggEBAFtTwJ9K0FeV7qUCH3h3srDjiUKv4sYCPp88
Zgksh3wZk74y86YGOG8HWE+mKg29q9WWfX3iOjs45gfswDF2YSiaiEY7EdyMwuf2
VfwFmY6I1o5WaodbWLjD/JcajJ8LDk0Gamsn7rvdBSCNdvQssXzRJo3uHriNqPpP
Ocn1f8e1x7SGAzW8ULwGZCQy1zNYTF+2z7k1GqDZ9mU4i3RkBX/YHjmr2mkEKT+c
FJ9guks/85OD4GpxMXWV2jT3nPbF/1Y9t1NzvjZorpWkDzd7RRFNGuVyeu/WK6d5
uGtxFfVwZdhA9y7VCfM8hI/NwSVau+fN2EytjVlvW6DOFpbbToI=
-----END CERTIFICATE-----
