Certificate:
    Data:
        Version: 3 (0x2)
        Serial Number: 4098 (0x1002)
        Signature Algorithm: sha256WithRSAEncryption
        Issuer: C=US, ST=NY, L=SYR, O=SYR, OU=SYR, CN=seedlabca.com
        Validity
            Not Before: Sep  3 04:11:40 2022 GMT
            Not After : Aug 31 04:11:40 2032 GMT
        Subject: C=US, ST=NY, L=SYR, O=SYR, OU=SYR, CN=vpnlabserver.com
        Subject Public Key Info:
            Public Key Algorithm: rsaEncryption
                RSA Public-Key: (2048 bit)
                Modulus:
                    00:ec:4d:f6:43:a9:37:86:a4:ac:cd:9b:2f:9a:85:
                    ae:a4:8e:be:70:32:c5:8c:ae:66:bb:85:52:4a:90:
                    ed:b9:02:17:77:d9:c4:11:0c:e5:66:96:50:3d:d7:
                    93:85:c4:fc:2e:ef:56:63:5a:c0:7d:c7:be:19:99:
                    12:35:8d:fb:0b:67:9f:b7:e2:77:27:57:8d:88:e2:
                    4a:51:e1:fa:e5:33:10:75:47:f0:ab:9e:bd:f0:66:
                    31:4b:f8:a9:7b:32:94:15:e2:5e:70:07:ef:90:05:
                    7b:be:6a:82:99:7b:3f:41:be:aa:25:c8:52:b6:4d:
                    38:42:29:55:c5:13:0a:dc:4f:40:e3:2e:c1:0e:7e:
                    2a:69:a5:0e:e6:cc:39:9e:7f:31:36:6a:fb:fd:e1:
                    3a:05:03:07:6d:4c:ac:d5:38:2c:a5:c1:b6:b1:e0:
                    21:25:a9:94:71:c3:62:a1:e8:1e:44:6f:c4:8c:27:
                    a1:fb:13:7e:4a:1c:5f:98:15:fe:f0:61:3d:8a:e4:
                    03:27:df:a3:d9:b3:5f:8b:5c:b7:fa:21:12:c8:b3:
                    7f:98:fb:9a:4c:8a:b2:8b:09:60:71:1e:27:1a:ca:
                    66:e6:de:ed:70:bf:d3:8d:2a:15:1f:78:48:8d:f4:
                    eb:cd:5d:05:b1:7a:8d:e1:ce:ef:3d:9e:1d:9f:4b:
                    ac:63
                Exponent: 65537 (0x10001)
        X509v3 extensions:
            X509v3 Basic Constraints: 
                CA:FALSE
            Netscape Comment: 
                OpenSSL Generated Certificate
            X509v3 Subject Key Identifier: 
                C2:8B:1F:E3:D4:71:9F:F1:FC:3D:24:7D:50:3D:C5:80:B0:18:97:63
            X509v3 Authority Key Identifier: 
                keyid:14:F3:1C:70:F5:2D:F0:DE:EF:12:B9:96:C3:38:1A:95:E3:07:55:78

    Signature Algorithm: sha256WithRSAEncryption
         72:01:48:33:cd:9f:d1:74:dd:64:78:20:6c:96:b0:42:b2:03:
         10:7b:57:ee:f3:1e:fa:1c:da:9f:d3:43:ac:79:50:af:6a:d9:
         16:73:f4:e9:c2:45:e3:e3:fc:d9:01:b7:d6:fe:90:cc:3e:f7:
         ef:8d:d9:7a:61:9f:ea:23:11:e1:d2:a7:a0:c7:ec:68:70:95:
         e4:9e:64:56:e0:a3:10:02:93:32:54:33:f8:04:22:62:2a:29:
         ba:47:cb:93:f0:1d:af:91:f4:8c:86:e6:ac:db:fe:f1:df:86:
         68:6d:d3:b6:a6:00:16:16:e5:3c:84:ec:da:ec:97:1d:54:1e:
         3b:d7:7c:9d:1f:fb:a6:a0:a1:6d:7f:a7:59:98:02:a0:46:38:
         73:e2:c1:6a:be:e6:e4:ff:6f:60:f7:f8:b6:d5:96:e0:a8:f6:
         ff:33:ad:1b:35:b7:56:90:83:88:32:7d:cf:26:6a:ba:da:b9:
         65:e6:51:da:e8:23:cd:e9:9f:27:06:75:c7:c6:7b:47:6b:9f:
         33:db:c8:61:3d:89:00:49:97:3b:ec:02:74:51:ac:1e:f2:36:
         3f:6d:57:c7:94:b8:b5:ea:62:7d:9e:5e:97:39:0a:44:ed:2e:
         ad:4b:ce:85:3a:85:b4:18:06:c9:ca:ce:3d:66:93:85:45:23:
         d9:c2:58:bd
-----BEGIN CERTIFICATE-----
MIIDsjCCApqgAwIBAgICEAIwDQYJKoZIhvcNAQELBQAwXDELMAkGA1UEBhMCVVMx
CzAJBgNVBAgMAk5ZMQwwCgYDVQQHDANTWVIxDDAKBgNVBAoMA1NZUjEMMAoGA1UE
CwwDU1lSMRYwFAYDVQQDDA1zZWVkbGFiY2EuY29tMB4XDTIyMDkwMzA0MTE0MFoX
DTMyMDgzMTA0MTE0MFowXzELMAkGA1UEBhMCVVMxCzAJBgNVBAgMAk5ZMQwwCgYD
VQQHDANTWVIxDDAKBgNVBAoMA1NZUjEMMAoGA1UECwwDU1lSMRkwFwYDVQQDDBB2
cG5sYWJzZXJ2ZXIuY29tMIIBIjANBgkqhkiG9w0BAQEFAAOCAQ8AMIIBCgKCAQEA
7E32Q6k3hqSszZsvmoWupI6+cDLFjK5mu4VSSpDtuQIXd9nEEQzlZpZQPdeThcT8
Lu9WY1rAfce+GZkSNY37C2eft+J3J1eNiOJKUeH65TMQdUfwq5698GYxS/ipezKU
FeJecAfvkAV7vmqCmXs/Qb6qJchStk04QilVxRMK3E9A4y7BDn4qaaUO5sw5nn8x
Nmr7/eE6BQMHbUys1TgspcG2seAhJamUccNioegeRG/EjCeh+xN+ShxfmBX+8GE9
iuQDJ9+j2bNfi1y3+iESyLN/mPuaTIqyiwlgcR4nGspm5t7tcL/TjSoVH3hIjfTr
zV0FsXqN4c7vPZ4dn0usYwIDAQABo3sweTAJBgNVHRMEAjAAMCwGCWCGSAGG+EIB
DQQfFh1PcGVuU1NMIEdlbmVyYXRlZCBDZXJ0aWZpY2F0ZTAdBgNVHQ4EFgQUwosf
49Rxn/H8PSR9UD3FgLAYl2MwHwYDVR0jBBgwFoAUFPMccPUt8N7vErmWwzgaleMH
VXgwDQYJKoZIhvcNAQELBQADggEBAHIBSDPNn9F03WR4IGyWsEKyAxB7V+7zHvoc
2p/TQ6x5UK9q2RZz9OnCRePj/NkBt9b+kMw+9++N2Xphn+ojEeHSp6DH7GhwleSe
ZFbgoxACkzJUM/gEImIqKbpHy5PwHa+R9IyG5qzb/vHfhmht07amABYW5TyE7Nrs
lx1UHjvXfJ0f+6agoW1/p1mYAqBGOHPiwWq+5uT/b2D3+LbVluCo9v8zrRs1t1aQ
g4gyfc8marrauWXmUdroI83pnycGdcfGe0drnzPbyGE9iQBJlzvsAnRRrB7yNj9t
V8eUuLXqYn2eXpc5CkTtLq1LzoU6hbQYBsnKzj1mk4VFI9nCWL0=
-----END CERTIFICATE-----
