Certificate:
    Data:
        Version: 3 (0x2)
        Serial Number: 4099 (0x1003)
        Signature Algorithm: sha256WithRSAEncryption
        Issuer: C=US, ST=NY, L=SYR, O=SYR, OU=SYR, CN=seedlabca.com
        Validity
            Not Before: Sep  3 04:33:11 2022 GMT
            Not After : Aug 31 04:33:11 2032 GMT
        Subject: C=US, O=Zhyzsy2001 Inc., CN=www.zhyzsy2001.com
        Subject Public Key Info:
            Public Key Algorithm: rsaEncryption
                RSA Public-Key: (2048 bit)
                Modulus:
                    00:e4:d3:13:10:cd:92:2b:4d:9a:a9:e1:4d:bf:0c:
                    ca:dd:39:f4:ec:8d:3e:c7:19:10:b9:49:c7:ec:55:
                    6e:68:93:e2:d6:32:6e:d7:45:56:c4:40:c1:7c:a5:
                    8d:f8:67:6a:c5:05:af:3d:99:cd:92:23:5d:f8:b4:
                    05:da:b1:97:bd:c8:8d:a5:25:07:26:4f:36:88:6a:
                    f7:89:37:a4:5d:78:5b:8d:9d:d5:e5:29:97:83:15:
                    aa:72:53:57:54:65:2e:cf:37:ac:65:1d:36:44:b7:
                    3c:3a:df:65:1f:5b:66:ed:60:4a:7e:c4:de:98:ca:
                    ca:66:ab:0d:ce:28:1d:86:aa:8a:0f:98:b9:2d:51:
                    54:22:7e:f2:92:55:02:33:77:9f:97:3c:b7:98:14:
                    b3:e5:55:c3:e5:42:9c:40:99:29:5b:01:8b:31:3c:
                    a2:d1:89:5d:01:b1:a3:b5:ce:cb:30:07:5a:c7:04:
                    05:4c:a4:00:37:9d:5f:ec:11:ef:f7:ab:70:51:f0:
                    4c:d4:7d:01:eb:25:12:91:08:50:e9:8c:09:4d:19:
                    95:0c:03:18:60:53:f3:e7:68:8b:9c:af:65:5e:31:
                    64:e6:bc:95:3d:c5:3a:41:94:97:56:28:88:12:ee:
                    9a:38:3e:a2:71:09:58:e1:9b:9c:1b:8d:3d:2a:01:
                    2b:e3
                Exponent: 65537 (0x10001)
        X509v3 extensions:
            X509v3 Basic Constraints: 
                CA:FALSE
            Netscape Comment: 
                OpenSSL Generated Certificate
            X509v3 Subject Key Identifier: 
                81:34:DB:AB:5C:1B:B4:D2:FD:5A:8A:60:98:DF:59:B3:BF:CC:26:57
            X509v3 Authority Key Identifier: 
                keyid:14:F3:1C:70:F5:2D:F0:DE:EF:12:B9:96:C3:38:1A:95:E3:07:55:78

    Signature Algorithm: sha256WithRSAEncryption
         4a:c1:d2:bb:c3:eb:59:4f:5b:56:e8:76:61:82:7f:01:3b:72:
         06:7a:45:89:9b:e1:46:44:88:e6:bb:ff:61:0e:f1:75:a3:18:
         20:25:12:19:c6:ea:55:60:e1:ad:a7:09:4e:e1:ff:fb:ba:54:
         52:7c:21:4d:97:80:ba:29:44:70:ad:67:01:c1:94:67:b8:5a:
         6c:02:29:71:04:1a:e3:98:e8:12:45:62:b9:19:c2:c7:8f:a8:
         96:5a:d1:44:01:14:61:a6:be:d8:f1:79:00:ac:69:70:c7:bb:
         81:19:c3:02:56:59:2a:54:f9:b7:1f:9c:31:f4:be:b1:86:a0:
         72:fc:05:ca:30:80:d0:f5:73:35:f7:11:f2:ce:d4:ad:93:66:
         94:40:13:a2:6f:83:be:d8:93:2a:51:08:c6:72:35:59:2a:ea:
         af:4b:67:68:3e:ba:af:49:f7:46:61:14:42:24:8b:ba:1c:02:
         af:36:20:3a:71:fe:59:15:d2:8d:c4:d3:f9:59:65:1f:cc:c9:
         f5:fb:2a:be:74:90:b1:6b:a8:6f:6a:0a:b5:c0:15:27:e5:0b:
         36:0c:e8:c1:33:a5:a9:82:a8:f5:c4:fb:2f:91:f3:c1:88:8c:
         33:36:fd:1e:28:1a:06:81:3c:6a:3d:09:34:c0:35:8a:19:6d:
         de:fc:ad:7f
-----BEGIN CERTIFICATE-----
MIIDlzCCAn+gAwIBAgICEAMwDQYJKoZIhvcNAQELBQAwXDELMAkGA1UEBhMCVVMx
CzAJBgNVBAgMAk5ZMQwwCgYDVQQHDANTWVIxDDAKBgNVBAoMA1NZUjEMMAoGA1UE
CwwDU1lSMRYwFAYDVQQDDA1zZWVkbGFiY2EuY29tMB4XDTIyMDkwMzA0MzMxMVoX
DTMyMDgzMTA0MzMxMVowRDELMAkGA1UEBhMCVVMxGDAWBgNVBAoMD1poeXpzeTIw
MDEgSW5jLjEbMBkGA1UEAwwSd3d3LnpoeXpzeTIwMDEuY29tMIIBIjANBgkqhkiG
9w0BAQEFAAOCAQ8AMIIBCgKCAQEA5NMTEM2SK02aqeFNvwzK3Tn07I0+xxkQuUnH
7FVuaJPi1jJu10VWxEDBfKWN+GdqxQWvPZnNkiNd+LQF2rGXvciNpSUHJk82iGr3
iTekXXhbjZ3V5SmXgxWqclNXVGUuzzesZR02RLc8Ot9lH1tm7WBKfsTemMrKZqsN
zigdhqqKD5i5LVFUIn7yklUCM3eflzy3mBSz5VXD5UKcQJkpWwGLMTyi0YldAbGj
tc7LMAdaxwQFTKQAN51f7BHv96twUfBM1H0B6yUSkQhQ6YwJTRmVDAMYYFPz52iL
nK9lXjFk5ryVPcU6QZSXViiIEu6aOD6icQlY4ZucG409KgEr4wIDAQABo3sweTAJ
BgNVHRMEAjAAMCwGCWCGSAGG+EIBDQQfFh1PcGVuU1NMIEdlbmVyYXRlZCBDZXJ0
aWZpY2F0ZTAdBgNVHQ4EFgQUgTTbq1wbtNL9WopgmN9Zs7/MJlcwHwYDVR0jBBgw
FoAUFPMccPUt8N7vErmWwzgaleMHVXgwDQYJKoZIhvcNAQELBQADggEBAErB0rvD
61lPW1bodmGCfwE7cgZ6RYmb4UZEiOa7/2EO8XWjGCAlEhnG6lVg4a2nCU7h//u6
VFJ8IU2XgLopRHCtZwHBlGe4WmwCKXEEGuOY6BJFYrkZwsePqJZa0UQBFGGmvtjx
eQCsaXDHu4EZwwJWWSpU+bcfnDH0vrGGoHL8BcowgND1czX3EfLO1K2TZpRAE6Jv
g77YkypRCMZyNVkq6q9LZ2g+uq9J90ZhFEIki7ocAq82IDpx/lkV0o3E0/lZZR/M
yfX7Kr50kLFrqG9qCrXAFSflCzYM6MEzpamCqPXE+y+R88GIjDM2/R4oGgaBPGo9
CTTANYoZbd78rX8=
-----END CERTIFICATE-----
